target datalayout = "e-m:e-p270:32:32-p271:32:32-p272:64:64-i64:64-i128:128-f80:128-n8:16:32:64-S128"
target triple = "x86_64-pc-linux-gnu"

; Function Attrs: null_pointer_is_valid sspstrong uwtable
define hidden ptr @writecap_open_stdout(i32 noundef %0, ptr noundef %1) #0 {
  %3 = alloca ptr, align 8
  %4 = alloca i32, align 4
  %5 = alloca ptr, align 8
  %6 = alloca i32, align 4
  %7 = alloca ptr, align 8
  %8 = alloca i32, align 4
  store i32 %0, ptr %4, align 4
  store ptr %1, ptr %5, align 8
  call void @llvm.lifetime.start.p0(i64 4, ptr %6) #12
  call void @llvm.lifetime.start.p0(i64 8, ptr %7) #12
  %9 = call i32 @dup(i32 noundef 1) #12
  store i32 %9, ptr %6, align 4
  %10 = load i32, ptr %6, align 4
  %11 = icmp eq i32 %10, -1
  br i1 %11, label %12, label %16

12:                                               ; preds = %2
  %13 = call ptr @__errno_location() #15
  %14 = load i32, ptr %13, align 4
  %15 = load ptr, ptr %5, align 8
  store i32 %14, ptr %15, align 4
  store ptr null, ptr %3, align 8
  store i32 1, ptr %8, align 4
  br label %28

16:                                               ; preds = %2
  %17 = load i32, ptr %6, align 4
  %18 = load i32, ptr %4, align 4
  %19 = load ptr, ptr %5, align 8
  %20 = call ptr @writecap_fdopen(i32 noundef %17, i32 noundef %18, ptr noundef %19)
  store ptr %20, ptr %7, align 8
  %21 = load ptr, ptr %7, align 8
  %22 = icmp eq ptr %21, null
  br i1 %22, label %23, label %26

23:                                               ; preds = %16
  %24 = load i32, ptr %6, align 4
  %25 = call i32 @close(i32 noundef %24)
  store ptr null, ptr %3, align 8
  store i32 1, ptr %8, align 4
  br label %28

26:                                               ; preds = %16
  %27 = load ptr, ptr %7, align 8
  store ptr %27, ptr %3, align 8
  store i32 1, ptr %8, align 4
  br label %28

28:                                               ; preds = %26, %23, %12
  call void @llvm.lifetime.end.p0(i64 8, ptr %7) #12
  call void @llvm.lifetime.end.p0(i64 4, ptr %6) #12
  %29 = load ptr, ptr %3, align 8
  ret ptr %29
}