; Function Attrs: null_pointer_is_valid sspstrong uwtable
define hidden noundef ptr @writecap_open_stdout(i32 noundef %0, ptr noundef writeonly captures(none) initializes((0, 4)) %1) local_unnamed_addr #0 {
  %3 = tail call i32 @dup(i32 noundef 1) #14
  %4 = icmp eq i32 %3, -1
  br i1 %4, label %5, label %8

5:                                                ; preds = %2
  %6 = tail call ptr @__errno_location() #13
  %7 = load i32, ptr %6, align 4
  store i32 %7, ptr %1, align 4
  br label %13

8:                                                ; preds = %2
  %9 = tail call ptr @writecap_fdopen(i32 noundef %3, i32 noundef %0, ptr noundef %1)
  %10 = icmp eq ptr %9, null
  br i1 %10, label %11, label %13

11:                                               ; preds = %8
  %12 = tail call i32 @close(i32 noundef %3)
  br label %13

13:                                               ; preds = %8, %11, %5
  %.0 = phi ptr [ null, %5 ], [ null, %11 ], [ %9, %8 ]
  ret ptr %.0
}